Certificate:
    Data:
        Version: 3 (0x2)
        Serial Number: 2 (0x2)
        Signature Algorithm: sha1WithRSAEncryption
        Issuer: CN=NETSim Build & Test CA, C=SE, ST=Ostergotland, L=Linkeboda, O=NETSim/emailAddress=sps.support@ericsson.com
        Validity
            Not Before: Feb 15 08:50:01 2006 GMT
            Not After : May 17 08:50:01 2023 GMT
        Subject: C=SE, ST=Ostergotland, O=NETSim, CN=NETSim Build & Test Cert/emailAddress=sps.support@ericsson.com
        Subject Public Key Info:
            Public Key Algorithm: rsaEncryption
            RSA Public Key: (1024 bit)
                Modulus (1024 bit):
                    00:b6:64:1b:61:b0:30:0d:e4:28:05:6a:73:8f:ff:
                    63:cf:af:72:41:79:9d:cc:33:7c:c2:7d:ca:cb:cb:
                    a4:56:7a:f1:2c:32:99:92:f7:d6:51:f7:09:c0:57:
                    45:8d:c5:06:ea:b6:f9:ff:77:87:a4:e4:80:eb:24:
                    29:35:7c:a4:16:bb:14:e9:23:d2:ec:f8:f3:af:65:
                    60:d5:22:80:b2:cb:1c:98:aa:b8:91:a8:36:a4:c1:
                    ae:6b:fe:9e:c7:85:7a:fe:3e:04:c1:3a:1b:78:e9:
                    90:a6:70:5e:c3:c4:b9:5f:cb:35:d4:ab:8a:11:f0:
                    fc:50:d6:5e:ca:e6:be:ef:81
                Exponent: 65537 (0x10001)
        X509v3 extensions:
            X509v3 Basic Constraints: 
            CA:FALSE
            X509v3 Subject Key Identifier: 
            70:AA:FE:55:33:F5:FC:E6:32:79:0F:3C:D5:EF:8D:DD:FB:DA:1B:AF
            X509v3 Authority Key Identifier: 
            keyid:29:C0:20:D7:77:BE:E3:AF:6F:1E:9B:BA:EA:B8:C4:EF:47:D6:C4:0E
            DirName:/CN=NETSim Build & Test CA/C=SE/ST=Ostergotland/L=Linkeboda/O=NETSim/emailAddress=sps.support@ericsson.com
            serial:00

    Signature Algorithm: sha1WithRSAEncryption
        12:35:a2:09:28:3d:ae:9e:84:b2:26:18:33:48:23:07:61:16:
        b2:8c:66:17:b8:d9:7e:ec:f5:12:15:d0:7a:aa:15:52:dc:32:
        74:7a:53:94:d4:14:fe:3a:82:0b:19:83:6f:08:0c:0a:d9:fd:
        b8:b4:95:8d:de:8b:70:9d:3b:8c:a9:b1:c3:42:7e:d4:83:ec:
        90:8d:81:d6:de:8d:b6:44:fe:04:0d:a8:57:43:1d:2d:a8:47:
        6b:3e:8a:ff:bc:c3:4a:09:b5:97:99:52:2a:c5:fb:56:13:e9:
        55:59:ae:c0:68:c9:c6:8d:3c:41:52:55:74:ab:84:14:38:4b:
        53:0b:f7:f1:1f:b2:3e:d0:56:33:b4:99:b8:d3:f0:ed:7f:53:
        98:a9:7a:5f:38:eb:00:58:c8:68:87:74:82:0e:2f:ea:06:ba:
        00:93:67:b5:95:71:64:01:c0:22:6a:ad:9a:4e:8d:81:30:e4:
        45:3b:b8:fa:f2:02:61:81:ce:1f:04:c7:21:85:8f:8a:91:af:
        c3:5a:3b:b7:9c:35:bd:5c:65:3c:84:28:0f:fc:c8:54:6a:a1:
        24:16:73:5e:73:50:a7:01:a8:c4:de:e0:2b:8b:0f:5d:dc:a4:
        85:8f:11:56:a2:e9:0b:9b:df:6c:88:e7:b0:e7:53:d9:d4:e6:
        25:ab:9e:14
-----BEGIN CERTIFICATE-----
MIID/jCCAuagAwIBAgIBAjANBgkqhkiG9w0BAQUFADCBkzEfMB0GA1UEAxQWTkVU
U2ltIEJ1aWxkICYgVGVzdCBDQTELMAkGA1UEBhMCU0UxFTATBgNVBAgTDE9zdGVy
Z290bGFuZDESMBAGA1UEBxMJTGlua2Vib2RhMQ8wDQYDVQQKEwZORVRTaW0xJzAl
BgkqhkiG9w0BCQEWGHNwcy5zdXBwb3J0QGVyaWNzc29uLmNvbTAeFw0wNjAyMTUw
ODUwMDFaFw0yMzA1MTcwODUwMDFaMIGBMQswCQYDVQQGEwJTRTEVMBMGA1UECBMM
T3N0ZXJnb3RsYW5kMQ8wDQYDVQQKEwZORVRTaW0xITAfBgNVBAMUGE5FVFNpbSBC
dWlsZCAmIFRlc3QgQ2VydDEnMCUGCSqGSIb3DQEJARYYc3BzLnN1cHBvcnRAZXJp
Y3Nzb24uY29tMIGfMA0GCSqGSIb3DQEBAQUAA4GNADCBiQKBgQC2ZBthsDAN5CgF
anOP/2PPr3JBeZ3MM3zCfcrLy6RWevEsMpmS99ZR9wnAV0WNxQbqtvn/d4ek5IDr
JCk1fKQWuxTpI9Ls+POvZWDVIoCyyxyYqriRqDakwa5r/p7HhXr+PgTBOht46ZCm
cF7DxLlfyzXUq4oR8PxQ1l7K5r7vgQIDAQABo4HwMIHtMAkGA1UdEwQCMAAwHQYD
VR0OBBYEFHCq/lUz9fzmMnkPPNXvjd372huvMIHABgNVHSMEgbgwgbWAFCnAINd3
vuOvbx6buuq4xO9H1sQOoYGZpIGWMIGTMR8wHQYDVQQDFBZORVRTaW0gQnVpbGQg
JiBUZXN0IENBMQswCQYDVQQGEwJTRTEVMBMGA1UECBMMT3N0ZXJnb3RsYW5kMRIw
EAYDVQQHEwlMaW5rZWJvZGExDzANBgNVBAoTBk5FVFNpbTEnMCUGCSqGSIb3DQEJ
ARYYc3BzLnN1cHBvcnRAZXJpY3Nzb24uY29tggEAMA0GCSqGSIb3DQEBBQUAA4IB
AQASNaIJKD2unoSyJhgzSCMHYRayjGYXuNl+7PUSFdB6qhVS3DJ0elOU1BT+OoIL
GYNvCAwK2f24tJWN3otwnTuMqbHDQn7Ug+yQjYHW3o22RP4EDahXQx0tqEdrPor/
vMNKCbWXmVIqxftWE+lVWa7AaMnGjTxBUlV0q4QUOEtTC/fxH7I+0FYztJm40/Dt
f1OYqXpfOOsAWMhoh3SCDi/qBroAk2e1lXFkAcAiaq2aTo2BMORFO7j68gJhgc4f
BMchhY+Kka/DWju3nDW9XGU8hCgP/MhUaqEkFnNec1CnAajE3uAriw9d3KSFjxFW
oukLm99siOew51PZ1OYlq54U
-----END CERTIFICATE-----
